target datalayout = "e-m:e-p270:32:32-p271:32:32-p272:64:64-i64:64-i128:128-f80:128-n8:16:32:64-S128"
target triple = "x86_64-pc-linux-gnu"

@.str.9 = private unnamed_addr constant [6 x i8] c"QF_FP\00", align 1
@.str.10 = private unnamed_addr constant [3 x i8] c"FP\00", align 1
@.str.11 = private unnamed_addr constant [8 x i8] c"QF_FPBV\00", align 1
@.str.12 = private unnamed_addr constant [8 x i8] c"QF_BVFP\00", align 1
@.str.28 = private unnamed_addr constant [9 x i8] c"QF_FPLRA\00", align 1
@.str.31 = private unnamed_addr constant [4 x i8] c"ALL\00", align 1

; Function Attrs: mustprogress uwtable
define linkonce_odr hidden noundef zeroext i1 @_ZN10smt_logics12logic_is_allERK6symbol(ptr noundef nonnull align 8 dereferenceable(8) %0) #4 comdat align 2 {
  %2 = alloca ptr, align 8
  store ptr %0, ptr %2, align 8, !tbaa !3
  %3 = load ptr, ptr %2, align 8, !tbaa !3
  %4 = call noundef zeroext i1 @_ZeqRK6symbolPKc(ptr noundef nonnull align 8 dereferenceable(8) %3, ptr noundef @.str.31)
  ret i1 %4
}

; Function Attrs: mustprogress uwtable
define hidden noundef zeroext i1 @_ZN10smt_logics13logic_has_fpaERK6symbol(ptr noundef nonnull align 8 dereferenceable(8) %0) #4 align 2 {
  %2 = alloca ptr, align 8
  store ptr %0, ptr %2, align 8, !tbaa !3
  %3 = load ptr, ptr %2, align 8, !tbaa !3
  %4 = call noundef zeroext i1 @_ZeqRK6symbolPKc(ptr noundef nonnull align 8 dereferenceable(8) %3, ptr noundef @.str.10)
  br i1 %4, label %20, label %5

5:                                                ; preds = %1
  %6 = load ptr, ptr %2, align 8, !tbaa !3
  %7 = call noundef zeroext i1 @_ZeqRK6symbolPKc(ptr noundef nonnull align 8 dereferenceable(8) %6, ptr noundef @.str.9)
  br i1 %7, label %20, label %8

8:                                                ; preds = %5
  %9 = load ptr, ptr %2, align 8, !tbaa !3
  %10 = call noundef zeroext i1 @_ZeqRK6symbolPKc(ptr noundef nonnull align 8 dereferenceable(8) %9, ptr noundef @.str.11)
  br i1 %10, label %20, label %11

11:                                               ; preds = %8
  %12 = load ptr, ptr %2, align 8, !tbaa !3
  %13 = call noundef zeroext i1 @_ZeqRK6symbolPKc(ptr noundef nonnull align 8 dereferenceable(8) %12, ptr noundef @.str.12)
  br i1 %13, label %20, label %14

14:                                               ; preds = %11
  %15 = load ptr, ptr %2, align 8, !tbaa !3
  %16 = call noundef zeroext i1 @_ZeqRK6symbolPKc(ptr noundef nonnull align 8 dereferenceable(8) %15, ptr noundef @.str.28)
  br i1 %16, label %20, label %17

17:                                               ; preds = %14
  %18 = load ptr, ptr %2, align 8, !tbaa !3
  %19 = call noundef zeroext i1 @_ZN10smt_logics12logic_is_allERK6symbol(ptr noundef nonnull align 8 dereferenceable(8) %18)
  br label %20

20:                                               ; preds = %17, %14, %11, %8, %5, %1
  %21 = phi i1 [ true, %14 ], [ true, %11 ], [ true, %8 ], [ true, %5 ], [ true, %1 ], [ %19, %17 ]
  ret i1 %21
}