; Function Attrs: mustprogress uwtable
define hidden noundef zeroext i1 @_ZN10smt_logics13logic_has_fpaERK6symbol(ptr noundef nonnull align 8 dereferenceable(8) %0) local_unnamed_addr #3 align 2 {
  %2 = tail call noundef zeroext i1 @_ZeqRK6symbolPKc(ptr noundef nonnull align 8 dereferenceable(8) %0, ptr noundef nonnull @.str.10)
  br i1 %2, label %13, label %3

3:                                                ; preds = %1
  %4 = tail call noundef zeroext i1 @_ZeqRK6symbolPKc(ptr noundef nonnull align 8 dereferenceable(8) %0, ptr noundef nonnull @.str.9)
  br i1 %4, label %13, label %5

5:                                                ; preds = %3
  %6 = tail call noundef zeroext i1 @_ZeqRK6symbolPKc(ptr noundef nonnull align 8 dereferenceable(8) %0, ptr noundef nonnull @.str.11)
  br i1 %6, label %13, label %7

7:                                                ; preds = %5
  %8 = tail call noundef zeroext i1 @_ZeqRK6symbolPKc(ptr noundef nonnull align 8 dereferenceable(8) %0, ptr noundef nonnull @.str.12)
  br i1 %8, label %13, label %9

9:                                                ; preds = %7
  %10 = tail call noundef zeroext i1 @_ZeqRK6symbolPKc(ptr noundef nonnull align 8 dereferenceable(8) %0, ptr noundef nonnull @.str.28)
  br i1 %10, label %13, label %11

11:                                               ; preds = %9
  %12 = tail call noundef zeroext i1 @_ZeqRK6symbolPKc(ptr noundef nonnull align 8 dereferenceable(8) %0, ptr noundef nonnull @.str.31)
  br label %13

13:                                               ; preds = %11, %9, %7, %5, %3, %1
  %14 = phi i1 [ true, %9 ], [ true, %7 ], [ true, %5 ], [ true, %3 ], [ true, %1 ], [ %12, %11 ]
  ret i1 %14
}